target datalayout = "e-m:e-p270:32:32-p271:32:32-p272:64:64-i64:64-i128:128-f80:128-n8:16:32:64-S128"
target triple = "x86_64-pc-linux-gnu"

%class.System = type { i32, i32, i32, i32, i32, i32, %"class.std::vector", %"class.std::vector.0", %"class.std::vector.4", %"class.std::vector.9", %"class.std::vector.14", %"class.std::vector.19", ptr, ptr }
%"class.std::vector" = type { %"struct.std::_Bvector_base" }
%"struct.std::_Bvector_base" = type { %"struct.std::_Bvector_base<std::allocator<bool>>::_Bvector_impl" }
%"struct.std::_Bvector_base<std::allocator<bool>>::_Bvector_impl" = type { %"struct.std::_Bvector_base<std::allocator<bool>>::_Bvector_impl_data" }
%"struct.std::_Bvector_base<std::allocator<bool>>::_Bvector_impl_data" = type { %"struct.std::_Bit_iterator", %"struct.std::_Bit_iterator", ptr }
%"struct.std::_Bit_iterator" = type { %"struct.std::_Bit_iterator_base.base", [4 x i8] }
%"struct.std::_Bit_iterator_base.base" = type <{ ptr, i32 }>
%"class.std::vector.0" = type { %"struct.std::_Vector_base" }
%"struct.std::_Vector_base" = type { %"struct.std::_Vector_base<void (*)(int), std::allocator<void (*)(int)>>::_Vector_impl" }
%"struct.std::_Vector_base<void (*)(int), std::allocator<void (*)(int)>>::_Vector_impl" = type { %"struct.std::_Vector_base<void (*)(int), std::allocator<void (*)(int)>>::_Vector_impl_data" }
%"struct.std::_Vector_base<void (*)(int), std::allocator<void (*)(int)>>::_Vector_impl_data" = type { ptr, ptr, ptr }
%"class.std::vector.4" = type { %"struct.std::_Vector_base.5" }
%"struct.std::_Vector_base.5" = type { %"struct.std::_Vector_base<void (*)(const boards &, std::vector<int> &, std::vector<int> &), std::allocator<void (*)(const boards &, std::vector<int> &, std::vector<int> &)>>::_Vector_impl" }
%"struct.std::_Vector_base<void (*)(const boards &, std::vector<int> &, std::vector<int> &), std::allocator<void (*)(const boards &, std::vector<int> &, std::vector<int> &)>>::_Vector_impl" = type { %"struct.std::_Vector_base<void (*)(const boards &, std::vector<int> &, std::vector<int> &), std::allocator<void (*)(const boards &, std::vector<int> &, std::vector<int> &)>>::_Vector_impl_data" }
%"struct.std::_Vector_base<void (*)(const boards &, std::vector<int> &, std::vector<int> &), std::allocator<void (*)(const boards &, std::vector<int> &, std::vector<int> &)>>::_Vector_impl_data" = type { ptr, ptr, ptr }
%"class.std::vector.9" = type { %"struct.std::_Vector_base.10" }
%"struct.std::_Vector_base.10" = type { %"struct.std::_Vector_base<void (*)(int, int), std::allocator<void (*)(int, int)>>::_Vector_impl" }
%"struct.std::_Vector_base<void (*)(int, int), std::allocator<void (*)(int, int)>>::_Vector_impl" = type { %"struct.std::_Vector_base<void (*)(int, int), std::allocator<void (*)(int, int)>>::_Vector_impl_data" }
%"struct.std::_Vector_base<void (*)(int, int), std::allocator<void (*)(int, int)>>::_Vector_impl_data" = type { ptr, ptr, ptr }
%"class.std::vector.14" = type { %"struct.std::_Vector_base.15" }
%"struct.std::_Vector_base.15" = type { %"struct.std::_Vector_base<void (*)(const std::vector<int> &), std::allocator<void (*)(const std::vector<int> &)>>::_Vector_impl" }
%"struct.std::_Vector_base<void (*)(const std::vector<int> &), std::allocator<void (*)(const std::vector<int> &)>>::_Vector_impl" = type { %"struct.std::_Vector_base<void (*)(const std::vector<int> &), std::allocator<void (*)(const std::vector<int> &)>>::_Vector_impl_data" }
%"struct.std::_Vector_base<void (*)(const std::vector<int> &), std::allocator<void (*)(const std::vector<int> &)>>::_Vector_impl_data" = type { ptr, ptr, ptr }
%"class.std::vector.19" = type { %"struct.std::_Vector_base.20" }
%"struct.std::_Vector_base.20" = type { %"struct.std::_Vector_base<int (System::*)(), std::allocator<int (System::*)()>>::_Vector_impl" }
%"struct.std::_Vector_base<int (System::*)(), std::allocator<int (System::*)()>>::_Vector_impl" = type { %"struct.std::_Vector_base<int (System::*)(), std::allocator<int (System::*)()>>::_Vector_impl_data" }
%"struct.std::_Vector_base<int (System::*)(), std::allocator<int (System::*)()>>::_Vector_impl_data" = type { ptr, ptr, ptr }
%class.Memory = type { %"class.std::vector.24", i32, %"class.std::vector.29" }
%"class.std::vector.24" = type { %"struct.std::_Vector_base.25" }
%"struct.std::_Vector_base.25" = type { %"struct.std::_Vector_base<ThreadData *, std::allocator<ThreadData *>>::_Vector_impl" }
%"struct.std::_Vector_base<ThreadData *, std::allocator<ThreadData *>>::_Vector_impl" = type { %"struct.std::_Vector_base<ThreadData *, std::allocator<ThreadData *>>::_Vector_impl_data" }
%"struct.std::_Vector_base<ThreadData *, std::allocator<ThreadData *>>::_Vector_impl_data" = type { ptr, ptr, ptr }
%"class.std::vector.29" = type { %"struct.std::_Vector_base.30" }
%"struct.std::_Vector_base.30" = type { %"struct.std::_Vector_base<std::__cxx11::basic_string<char>, std::allocator<std::__cxx11::basic_string<char>>>::_Vector_impl" }
%"struct.std::_Vector_base<std::__cxx11::basic_string<char>, std::allocator<std::__cxx11::basic_string<char>>>::_Vector_impl" = type { %"struct.std::_Vector_base<std::__cxx11::basic_string<char>, std::allocator<std::__cxx11::basic_string<char>>>::_Vector_impl_data" }
%"struct.std::_Vector_base<std::__cxx11::basic_string<char>, std::allocator<std::__cxx11::basic_string<char>>>::_Vector_impl_data" = type { ptr, ptr, ptr }
%class.Scheduler = type { [200 x %"struct.Scheduler::handType"], [200 x %"struct.Scheduler::groupType"], i32, i32, %"struct.std::atomic", [6 x [200 x %"struct.Scheduler::listType"]], [200 x %"struct.Scheduler::sortType"], i32, %"class.std::vector.34", %"class.std::vector.34", %"class.std::vector.34", i32, i32, %"class.std::vector.34", %"class.std::vector.39", %class.Timer }
%"struct.Scheduler::handType" = type { i32, i32, [4 x [4 x i32]], i32, i32, i32, i32, i32, i32, i32, i32, i32, i32 }
%"struct.Scheduler::groupType" = type { i32, i32, i32, i32, i32, i32 }
%"struct.std::atomic" = type { %"struct.std::__atomic_base" }
%"struct.std::__atomic_base" = type { i32 }
%"struct.Scheduler::listType" = type { i32, i32, i32 }
%"struct.Scheduler::sortType" = type { i32, i32 }
%"class.std::vector.34" = type { %"struct.std::_Vector_base.35" }
%"struct.std::_Vector_base.35" = type { %"struct.std::_Vector_base<int, std::allocator<int>>::_Vector_impl" }
%"struct.std::_Vector_base<int, std::allocator<int>>::_Vector_impl" = type { %"struct.std::_Vector_base<int, std::allocator<int>>::_Vector_impl_data" }
%"struct.std::_Vector_base<int, std::allocator<int>>::_Vector_impl_data" = type { ptr, ptr, ptr }
%"class.std::vector.39" = type { %"struct.std::_Vector_base.40" }
%"struct.std::_Vector_base.40" = type { %"struct.std::_Vector_base<Timer, std::allocator<Timer>>::_Vector_impl" }
%"struct.std::_Vector_base<Timer, std::allocator<Timer>>::_Vector_impl" = type { %"struct.std::_Vector_base<Timer, std::allocator<Timer>>::_Vector_impl_data" }
%"struct.std::_Vector_base<Timer, std::allocator<Timer>>::_Vector_impl_data" = type { ptr, ptr, ptr }
%class.Timer = type { %"class.std::__cxx11::basic_string", i32, i64, i64, %"class.std::chrono::time_point", i64 }
%"class.std::__cxx11::basic_string" = type { %"struct.std::__cxx11::basic_string<char>::_Alloc_hider", i64, %union.anon }
%"struct.std::__cxx11::basic_string<char>::_Alloc_hider" = type { ptr }
%union.anon = type { i64, [8 x i8] }
%"class.std::chrono::time_point" = type { %"class.std::chrono::duration" }
%"class.std::chrono::duration" = type { i64 }
%class.ThreadMgr = type { %"class.std::vector", %"class.std::vector.34", i32, i32 }
%"class.std::basic_ostream" = type { ptr, %"class.std::basic_ios" }
%"class.std::basic_ios" = type { %"class.std::ios_base", ptr, i8, i8, ptr, ptr, ptr, ptr }
%"class.std::ios_base" = type { ptr, i64, i64, i32, i32, i32, ptr, %"struct.std::ios_base::_Words", [8 x %"struct.std::ios_base::_Words"], i32, ptr, %"class.std::locale" }
%"struct.std::ios_base::_Words" = type { ptr, i64 }
%"class.std::locale" = type { ptr }

@sysdep = global %class.System zeroinitializer, align 8
@memory = global %class.Memory zeroinitializer, align 8
@scheduler = global %class.Scheduler zeroinitializer, align 8
@threadMgr = global %class.ThreadMgr zeroinitializer, align 8
@_initialized = global i32 0, align 4
@_ZSt4cout = external global %"class.std::basic_ostream", align 8
@.str = private unnamed_addr constant [46 x i8] c"Critical Error Init.cpp. 0 threads available.\00", align 1

; Function Attrs: mustprogress nounwind uwtable
define linkonce_odr noundef nonnull align 4 dereferenceable(4) ptr @_ZSt3maxIiERKT_S2_S2_(ptr noundef nonnull align 4 dereferenceable(4) %0, ptr noundef nonnull align 4 dereferenceable(4) %1) #5 comdat {
  %3 = alloca ptr, align 8
  %4 = alloca ptr, align 8
  %5 = alloca ptr, align 8
  store ptr %0, ptr %4, align 8
  store ptr %1, ptr %5, align 8
  %6 = load ptr, ptr %4, align 8
  %7 = load i32, ptr %6, align 4
  %8 = load ptr, ptr %5, align 8
  %9 = load i32, ptr %8, align 4
  %10 = icmp slt i32 %7, %9
  br i1 %10, label %11, label %13

11:                                               ; preds = %2
  %12 = load ptr, ptr %5, align 8
  store ptr %12, ptr %3, align 8
  br label %15

13:                                               ; preds = %2
  %14 = load ptr, ptr %4, align 8
  store ptr %14, ptr %3, align 8
  br label %15

15:                                               ; preds = %13, %11
  %16 = load ptr, ptr %3, align 8
  ret ptr %16
}

; Function Attrs: mustprogress nounwind uwtable
define linkonce_odr noundef nonnull align 4 dereferenceable(4) ptr @_ZSt3minIiERKT_S2_S2_(ptr noundef nonnull align 4 dereferenceable(4) %0, ptr noundef nonnull align 4 dereferenceable(4) %1) #5 comdat {
  %3 = alloca ptr, align 8
  %4 = alloca ptr, align 8
  %5 = alloca ptr, align 8
  store ptr %0, ptr %4, align 8
  store ptr %1, ptr %5, align 8
  %6 = load ptr, ptr %5, align 8
  %7 = load i32, ptr %6, align 4
  %8 = load ptr, ptr %4, align 8
  %9 = load i32, ptr %8, align 4
  %10 = icmp slt i32 %7, %9
  br i1 %10, label %11, label %13

11:                                               ; preds = %2
  %12 = load ptr, ptr %5, align 8
  store ptr %12, ptr %3, align 8
  br label %15

13:                                               ; preds = %2
  %14 = load ptr, ptr %4, align 8
  store ptr %14, ptr %3, align 8
  br label %15

15:                                               ; preds = %13, %11
  %16 = load ptr, ptr %3, align 8
  ret ptr %16
}

; Function Attrs: mustprogress uwtable
define void @SetResources(i32 noundef %0, i32 noundef %1) #4 {
  %3 = alloca i32, align 4
  %4 = alloca i32, align 4
  %5 = alloca i32, align 4
  %6 = alloca i64, align 8
  %7 = alloca i32, align 4
  %8 = alloca i32, align 4
  %9 = alloca i32, align 4
  %10 = alloca i32, align 4
  %11 = alloca i32, align 4
  %12 = alloca i32, align 4
  %13 = alloca i32, align 4
  %14 = alloca i32, align 4
  %15 = alloca i32, align 4
  %16 = alloca i32, align 4
  %17 = alloca i32, align 4
  %18 = alloca double, align 8
  store i32 %0, ptr %3, align 4
  store i32 %1, ptr %4, align 4
  call void @_ZNK6System11GetHardwareERiRy(ptr noundef nonnull align 8 dereferenceable(200) @sysdep, ptr noundef nonnull align 4 dereferenceable(4) %5, ptr noundef nonnull align 8 dereferenceable(8) %6)
  %19 = load i32, ptr %3, align 4
  %20 = icmp eq i32 %19, 0
  br i1 %20, label %21, label %22

21:                                               ; preds = %2
  br label %27

22:                                               ; preds = %2
  %23 = load i32, ptr %3, align 4
  %24 = sitofp i32 %23 to double
  %25 = fmul double 1.300000e+00, %24
  %26 = fptosi double %25 to i32
  br label %27

27:                                               ; preds = %22, %21
  %28 = phi i32 [ 1000000, %21 ], [ %26, %22 ]
  store i32 %28, ptr %7, align 4
  %29 = load i64, ptr %6, align 8
  %30 = uitofp i64 %29 to double
  %31 = fmul double 0x3FE6666666666666, %30
  %32 = fdiv double %31, 1.024000e+03
  %33 = fptosi double %32 to i32
  store i32 %33, ptr %8, align 4
  store i32 1000000, ptr %9, align 4
  %34 = call noundef nonnull align 4 dereferenceable(4) ptr @_ZSt3minIiERKT_S2_S2_(ptr noundef nonnull align 4 dereferenceable(4) %7, ptr noundef nonnull align 4 dereferenceable(4) %8)
  %35 = load i32, ptr %34, align 4
  store i32 %35, ptr %10, align 4
  %36 = call noundef nonnull align 4 dereferenceable(4) ptr @_ZSt3minIiERKT_S2_S2_(ptr noundef nonnull align 4 dereferenceable(4) %10, ptr noundef nonnull align 4 dereferenceable(4) %9)
  %37 = load i32, ptr %36, align 4
  store i32 %37, ptr %10, align 4
  %38 = call noundef zeroext i1 @_ZNK6System16IsSingleThreadedEv(ptr noundef nonnull align 8 dereferenceable(200) @sysdep)
  br i1 %38, label %39, label %40

39:                                               ; preds = %27
  store i32 1, ptr %11, align 4
  br label %51

40:                                               ; preds = %27
  %41 = call noundef zeroext i1 @_ZNK6System6IsIMPLEv(ptr noundef nonnull align 8 dereferenceable(200) @sysdep)
  br i1 %41, label %45, label %42

42:                                               ; preds = %40
  %43 = load i32, ptr %4, align 4
  %44 = icmp sle i32 %43, 0
  br i1 %44, label %45, label %47

45:                                               ; preds = %42, %40
  %46 = load i32, ptr %5, align 4
  store i32 %46, ptr %11, align 4
  br label %50

47:                                               ; preds = %42
  %48 = call noundef nonnull align 4 dereferenceable(4) ptr @_ZSt3minIiERKT_S2_S2_(ptr noundef nonnull align 4 dereferenceable(4) %4, ptr noundef nonnull align 4 dereferenceable(4) %5)
  %49 = load i32, ptr %48, align 4
  store i32 %49, ptr %11, align 4
  br label %50

50:                                               ; preds = %47, %45
  br label %51

51:                                               ; preds = %50, %39
  store i32 1, ptr %12, align 4
  %52 = call noundef nonnull align 4 dereferenceable(4) ptr @_ZSt3maxIiERKT_S2_S2_(ptr noundef nonnull align 4 dereferenceable(4) %12, ptr noundef nonnull align 4 dereferenceable(4) %11)
  %53 = load i32, ptr %52, align 4
  store i32 %53, ptr %11, align 4
  %54 = load i32, ptr %11, align 4
  %55 = mul nsw i32 %54, 160
  %56 = load i32, ptr %10, align 4
  %57 = icmp sle i32 %55, %56
  br i1 %57, label %58, label %61

58:                                               ; preds = %51
  %59 = load i32, ptr %11, align 4
  store i32 %59, ptr %13, align 4
  %60 = load i32, ptr %11, align 4
  store i32 %60, ptr %14, align 4
  store i32 0, ptr %15, align 4
  br label %87

61:                                               ; preds = %51
  %62 = load i32, ptr %11, align 4
  %63 = mul nsw i32 %62, 30
  %64 = load i32, ptr %10, align 4
  %65 = icmp sgt i32 %63, %64
  br i1 %65, label %66, label %74

66:                                               ; preds = %61
  store i32 1, ptr %16, align 4
  %67 = load i32, ptr %10, align 4
  %68 = sitofp i32 %67 to double
  %69 = fdiv double %68, 3.000000e+01
  %70 = fptosi double %69 to i32
  store i32 %70, ptr %17, align 4
  %71 = call noundef nonnull align 4 dereferenceable(4) ptr @_ZSt3maxIiERKT_S2_S2_(ptr noundef nonnull align 4 dereferenceable(4) %16, ptr noundef nonnull align 4 dereferenceable(4) %17)
  %72 = load i32, ptr %71, align 4
  store i32 %72, ptr %13, align 4
  store i32 0, ptr %14, align 4
  %73 = load i32, ptr %13, align 4
  store i32 %73, ptr %15, align 4
  br label %86

74:                                               ; preds = %61
  store double 1.300000e+02, ptr %18, align 8
  %75 = load i32, ptr %11, align 4
  store i32 %75, ptr %13, align 4
  %76 = load i32, ptr %10, align 4
  %77 = load i32, ptr %11, align 4
  %78 = mul nsw i32 %77, 30
  %79 = sub nsw i32 %76, %78
  %80 = sitofp i32 %79 to double
  %81 = fdiv double %80, 1.300000e+02
  %82 = fptosi double %81 to i32
  store i32 %82, ptr %14, align 4
  %83 = load i32, ptr %11, align 4
  %84 = load i32, ptr %14, align 4
  %85 = sub nsw i32 %83, %84
  store i32 %85, ptr %15, align 4
  br label %86

86:                                               ; preds = %74, %66
  br label %87

87:                                               ; preds = %86, %58
  %88 = load i32, ptr %13, align 4
  %89 = load i32, ptr %10, align 4
  %90 = call noundef i32 @_ZN6System14RegisterParamsEii(ptr noundef nonnull align 8 dereferenceable(200) @sysdep, i32 noundef %88, i32 noundef %89)
  %91 = load i32, ptr %13, align 4
  call void @_ZN9Scheduler15RegisterThreadsEi(ptr noundef nonnull align 8 dereferenceable(43416) @scheduler, i32 noundef %91)
  call void @_ZN6Memory6ResizeEj8TTmemoryii(ptr noundef nonnull align 8 dereferenceable(56) @memory, i32 noundef 0, i32 noundef 0, i32 noundef 0, i32 noundef 0)
  %92 = load i32, ptr %14, align 4
  %93 = icmp sgt i32 %92, 0
  br i1 %93, label %94, label %96

94:                                               ; preds = %87
  %95 = load i32, ptr %14, align 4
  call void @_ZN6Memory6ResizeEj8TTmemoryii(ptr noundef nonnull align 8 dereferenceable(56) @memory, i32 noundef %95, i32 noundef 1, i32 noundef 95, i32 noundef 160)
  br label %96

96:                                               ; preds = %94, %87
  %97 = load i32, ptr %15, align 4
  %98 = icmp sgt i32 %97, 0
  br i1 %98, label %99, label %101

99:                                               ; preds = %96
  %100 = load i32, ptr %13, align 4
  call void @_ZN6Memory6ResizeEj8TTmemoryii(ptr noundef nonnull align 8 dereferenceable(56) @memory, i32 noundef %100, i32 noundef 0, i32 noundef 20, i32 noundef 30)
  br label %101

101:                                              ; preds = %99, %96
  %102 = call noundef i32 @_ZNK6Memory10NumThreadsEv(ptr noundef nonnull align 8 dereferenceable(56) @memory)
  %103 = icmp slt i32 %102, 1
  br i1 %103, label %104, label %107

104:                                              ; preds = %101
  %105 = call noundef nonnull align 8 dereferenceable(8) ptr @_ZStlsISt11char_traitsIcEERSt13basic_ostreamIcT_ES5_PKc(ptr noundef nonnull align 8 dereferenceable(8) @_ZSt4cout, ptr noundef @.str)
  %106 = call noundef nonnull align 8 dereferenceable(8) ptr @_ZNSolsEPFRSoS_E(ptr noundef nonnull align 8 dereferenceable(8) %105, ptr noundef @_ZSt4endlIcSt11char_traitsIcEERSt13basic_ostreamIT_T0_ES6_)
  call void @exit(i32 noundef 1) #10
  unreachable

107:                                              ; preds = %101
  %108 = load i32, ptr %13, align 4
  call void @_ZN9ThreadMgr5ResetEi(ptr noundef nonnull align 8 dereferenceable(72) @threadMgr, i32 noundef %108)
  call void @_Z14InitDebugFilesv()
  %109 = load i32, ptr @_initialized, align 4
  %110 = icmp ne i32 %109, 0
  br i1 %110, label %112, label %111

111:                                              ; preds = %107
  store i32 1, ptr @_initialized, align 4
  call void @_Z13InitConstantsv()
  br label %112

112:                                              ; preds = %111, %107
  ret void
}