; Function Attrs: mustprogress uwtable
define void @SetResources(i32 noundef %0, i32 noundef %1) local_unnamed_addr #3 {
  %3 = alloca i32, align 4
  %4 = alloca i64, align 8
  call void @_ZNK6System11GetHardwareERiRy(ptr noundef nonnull align 8 dereferenceable(200) @sysdep, ptr noundef nonnull align 4 dereferenceable(4) %3, ptr noundef nonnull align 8 dereferenceable(8) %4)
  %5 = icmp eq i32 %0, 0
  %6 = sitofp i32 %0 to double
  %7 = fmul double %6, 1.300000e+00
  %8 = fptosi double %7 to i32
  %9 = select i1 %5, i32 1000000, i32 %8
  %10 = load i64, ptr %4, align 8
  %11 = uitofp i64 %10 to double
  %12 = fmul double %11, 0x3FE6666666666666
  %13 = fmul double %12, 0x3F50000000000000
  %14 = fptosi double %13 to i32
  %.sroa.speculated40 = call i32 @llvm.smin.i32(i32 %9, i32 %14)
  %.sroa.speculated32 = call i32 @llvm.smin.i32(i32 %.sroa.speculated40, i32 1000000)
  %15 = call noundef zeroext i1 @_ZNK6System16IsSingleThreadedEv(ptr noundef nonnull align 8 dereferenceable(200) @sysdep)
  br i1 %15, label %.thread, label %16

16:                                               ; preds = %2
  %17 = call noundef zeroext i1 @_ZNK6System6IsIMPLEv(ptr noundef nonnull align 8 dereferenceable(200) @sysdep)
  %18 = icmp slt i32 %1, 1
  %or.cond = or i1 %18, %17
  %19 = load i32, ptr %3, align 4
  %.sroa.speculated46 = call i32 @llvm.smin.i32(i32 %19, i32 %1)
  %.050 = select i1 %or.cond, i32 %19, i32 %.sroa.speculated46
  %.050.fr = freeze i32 %.050
  %spec.select = call i32 @llvm.smax.i32(i32 %.050.fr, i32 1)
  br label %.thread

.thread:                                          ; preds = %16, %2
  %20 = phi i32 [ 1, %2 ], [ %spec.select, %16 ]
  %21 = mul nuw nsw i32 %20, 160
  %.not = icmp sgt i32 %21, %.sroa.speculated32
  br i1 %.not, label %22, label %35

22:                                               ; preds = %.thread
  %23 = mul nuw nsw i32 %20, 30
  %24 = icmp sgt i32 %23, %.sroa.speculated32
  br i1 %24, label %25, label %29

25:                                               ; preds = %22
  %26 = sitofp i32 %.sroa.speculated32 to double
  %27 = fdiv double %26, 3.000000e+01
  %28 = fptosi double %27 to i32
  %.sroa.speculated = call i32 @llvm.smax.i32(i32 %28, i32 1)
  br label %35

29:                                               ; preds = %22
  %30 = sub nsw i32 %.sroa.speculated32, %23
  %31 = sitofp i32 %30 to double
  %32 = fdiv double %31, 1.300000e+02
  %33 = fptosi double %32 to i32
  %34 = icmp sgt i32 %20, %33
  br label %35

35:                                               ; preds = %.thread, %25, %29
  %.013 = phi i32 [ 0, %25 ], [ %33, %29 ], [ %20, %.thread ]
  %.012 = phi i1 [ true, %25 ], [ %34, %29 ], [ false, %.thread ]
  %.0 = phi i32 [ %.sroa.speculated, %25 ], [ %20, %29 ], [ %20, %.thread ]
  %36 = call noundef i32 @_ZN6System14RegisterParamsEii(ptr noundef nonnull align 8 dereferenceable(200) @sysdep, i32 noundef %.0, i32 noundef %.sroa.speculated32)
  call void @_ZN9Scheduler15RegisterThreadsEi(ptr noundef nonnull align 8 dereferenceable(43416) @scheduler, i32 noundef %.0)
  call void @_ZN6Memory6ResizeEj8TTmemoryii(ptr noundef nonnull align 8 dereferenceable(56) @memory, i32 noundef 0, i32 noundef 0, i32 noundef 0, i32 noundef 0)
  %37 = icmp sgt i32 %.013, 0
  br i1 %37, label %38, label %39

38:                                               ; preds = %35
  call void @_ZN6Memory6ResizeEj8TTmemoryii(ptr noundef nonnull align 8 dereferenceable(56) @memory, i32 noundef %.013, i32 noundef 1, i32 noundef 95, i32 noundef 160)
  br label %39

39:                                               ; preds = %38, %35
  br i1 %.012, label %40, label %41

40:                                               ; preds = %39
  call void @_ZN6Memory6ResizeEj8TTmemoryii(ptr noundef nonnull align 8 dereferenceable(56) @memory, i32 noundef %.0, i32 noundef 0, i32 noundef 20, i32 noundef 30)
  br label %41

41:                                               ; preds = %40, %39
  %42 = call noundef i32 @_ZNK6Memory10NumThreadsEv(ptr noundef nonnull align 8 dereferenceable(56) @memory)
  %43 = icmp slt i32 %42, 1
  br i1 %43, label %44, label %47

44:                                               ; preds = %41
  %45 = call noundef nonnull align 8 dereferenceable(8) ptr @_ZStlsISt11char_traitsIcEERSt13basic_ostreamIcT_ES5_PKc(ptr noundef nonnull align 8 dereferenceable(8) @_ZSt4cout, ptr noundef nonnull @.str)
  %46 = call noundef nonnull align 8 dereferenceable(8) ptr @_ZNSolsEPFRSoS_E(ptr noundef nonnull align 8 dereferenceable(8) %45, ptr noundef nonnull @_ZSt4endlIcSt11char_traitsIcEERSt13basic_ostreamIT_T0_ES6_)
  call void @exit(i32 noundef 1) #16
  unreachable

47:                                               ; preds = %41
  call void @_ZN9ThreadMgr5ResetEi(ptr noundef nonnull align 8 dereferenceable(72) @threadMgr, i32 noundef %.0)
  call void @_Z14InitDebugFilesv()
  %48 = load i32, ptr @_initialized, align 4
  %.not16 = icmp eq i32 %48, 0
  br i1 %.not16, label %49, label %50

49:                                               ; preds = %47
  store i32 1, ptr @_initialized, align 4
  call void @_Z13InitConstantsv()
  br label %50

50:                                               ; preds = %49, %47
  ret void
}